target datalayout = "e-m:e-p270:32:32-p271:32:32-p272:64:64-i64:64-i128:128-f80:128-n8:16:32:64-S128"
target triple = "x86_64-pc-linux-gnu"

%class.Type = type { i32, ptr, i32, %"class.std::vector.8", %"class.std::vector.13", i32, i8, i8, i8, i8, i8, %"class.std::vector.18", %"class.std::vector.23" }
%"class.std::vector.8" = type { %"struct.std::_Vector_base.9" }
%"struct.std::_Vector_base.9" = type { %"struct.std::_Vector_base<unsigned int, std::allocator<unsigned int>>::_Vector_impl" }
%"struct.std::_Vector_base<unsigned int, std::allocator<unsigned int>>::_Vector_impl" = type { %"struct.std::_Vector_base<unsigned int, std::allocator<unsigned int>>::_Vector_impl_data" }
%"struct.std::_Vector_base<unsigned int, std::allocator<unsigned int>>::_Vector_impl_data" = type { ptr, ptr, ptr }
%"class.std::vector.13" = type { %"struct.std::_Vector_base.14" }
%"struct.std::_Vector_base.14" = type { %"struct.std::_Vector_base<const Type *, std::allocator<const Type *>>::_Vector_impl" }
%"struct.std::_Vector_base<const Type *, std::allocator<const Type *>>::_Vector_impl" = type { %"struct.std::_Vector_base<const Type *, std::allocator<const Type *>>::_Vector_impl_data" }
%"struct.std::_Vector_base<const Type *, std::allocator<const Type *>>::_Vector_impl_data" = type { ptr, ptr, ptr }
%"class.std::vector.18" = type { %"struct.std::_Vector_base.19" }
%"struct.std::_Vector_base.19" = type { %"struct.std::_Vector_base<CVQualifiers, std::allocator<CVQualifiers>>::_Vector_impl" }
%"struct.std::_Vector_base<CVQualifiers, std::allocator<CVQualifiers>>::_Vector_impl" = type { %"struct.std::_Vector_base<CVQualifiers, std::allocator<CVQualifiers>>::_Vector_impl_data" }
%"struct.std::_Vector_base<CVQualifiers, std::allocator<CVQualifiers>>::_Vector_impl_data" = type { ptr, ptr, ptr }
%"class.std::vector.23" = type { %"struct.std::_Vector_base.24" }
%"struct.std::_Vector_base.24" = type { %"struct.std::_Vector_base<int, std::allocator<int>>::_Vector_impl" }
%"struct.std::_Vector_base<int, std::allocator<int>>::_Vector_impl" = type { %"struct.std::_Vector_base<int, std::allocator<int>>::_Vector_impl_data" }
%"struct.std::_Vector_base<int, std::allocator<int>>::_Vector_impl_data" = type { ptr, ptr, ptr }

@_ZN4TypeD1Ev = dso_local unnamed_addr alias void (ptr), ptr @_ZN4TypeD2Ev

; Function Attrs: mustprogress nounwind uwtable
define linkonce_odr dso_local noundef nonnull align 8 dereferenceable(8) ptr @_ZNSt6vectorIPK4TypeSaIS2_EEixEm(ptr noundef nonnull align 8 dereferenceable(24) %0, i64 noundef %1) #4 comdat align 2 {
  %3 = alloca ptr, align 8
  %4 = alloca i64, align 8
  store ptr %0, ptr %3, align 8
  store i64 %1, ptr %4, align 8
  %5 = load ptr, ptr %3, align 8
  %6 = getelementptr inbounds %"struct.std::_Vector_base.14", ptr %5, i32 0, i32 0
  %7 = getelementptr inbounds %"struct.std::_Vector_base<const Type *, std::allocator<const Type *>>::_Vector_impl_data", ptr %6, i32 0, i32 0
  %8 = load ptr, ptr %7, align 8
  %9 = load i64, ptr %4, align 8
  %10 = getelementptr inbounds ptr, ptr %8, i64 %9
  ret ptr %10
}

; Function Attrs: mustprogress nounwind uwtable
define linkonce_odr dso_local noundef i64 @_ZNKSt6vectorIPK4TypeSaIS2_EE4sizeEv(ptr noundef nonnull align 8 dereferenceable(24) %0) #4 comdat align 2 {
  %2 = alloca ptr, align 8
  store ptr %0, ptr %2, align 8
  %3 = load ptr, ptr %2, align 8
  %4 = getelementptr inbounds %"struct.std::_Vector_base.14", ptr %3, i32 0, i32 0
  %5 = getelementptr inbounds %"struct.std::_Vector_base<const Type *, std::allocator<const Type *>>::_Vector_impl_data", ptr %4, i32 0, i32 1
  %6 = load ptr, ptr %5, align 8
  %7 = getelementptr inbounds %"struct.std::_Vector_base.14", ptr %3, i32 0, i32 0
  %8 = getelementptr inbounds %"struct.std::_Vector_base<const Type *, std::allocator<const Type *>>::_Vector_impl_data", ptr %7, i32 0, i32 0
  %9 = load ptr, ptr %8, align 8
  %10 = ptrtoint ptr %6 to i64
  %11 = ptrtoint ptr %9 to i64
  %12 = sub i64 %10, %11
  %13 = sdiv exact i64 %12, 8
  ret i64 %13
}

; Function Attrs: mustprogress nounwind uwtable
define dso_local void @_ZN4Type22delete_useless_structsERSt6vectorIPKS_SaIS2_EES5_(ptr noundef nonnull align 8 dereferenceable(24) %0, ptr noundef nonnull align 8 dereferenceable(24) %1) #4 align 2 {
  %3 = alloca ptr, align 8
  %4 = alloca ptr, align 8
  %5 = alloca i64, align 8
  %6 = alloca ptr, align 8
  %7 = alloca ptr, align 8
  store ptr %0, ptr %3, align 8
  store ptr %1, ptr %4, align 8
  store i64 0, ptr %5, align 8
  br label %8

8:                                                ; preds = %36, %2
  %9 = load i64, ptr %5, align 8
  %10 = load ptr, ptr %3, align 8
  %11 = call noundef i64 @_ZNKSt6vectorIPK4TypeSaIS2_EE4sizeEv(ptr noundef nonnull align 8 dereferenceable(24) %10) #3
  %12 = icmp ult i64 %9, %11
  br i1 %12, label %13, label %39

13:                                               ; preds = %8
  %14 = load ptr, ptr %3, align 8
  %15 = load i64, ptr %5, align 8
  %16 = call noundef nonnull align 8 dereferenceable(8) ptr @_ZNSt6vectorIPK4TypeSaIS2_EEixEm(ptr noundef nonnull align 8 dereferenceable(24) %14, i64 noundef %15) #3
  %17 = load ptr, ptr %16, align 8
  store ptr %17, ptr %6, align 8
  %18 = load ptr, ptr %6, align 8
  %19 = getelementptr inbounds %class.Type, ptr %18, i32 0, i32 0
  %20 = load i32, ptr %19, align 8
  %21 = icmp eq i32 %20, 3
  br i1 %21, label %22, label %35

22:                                               ; preds = %13
  %23 = load ptr, ptr %4, align 8
  %24 = load i64, ptr %5, align 8
  %25 = call noundef nonnull align 8 dereferenceable(8) ptr @_ZNSt6vectorIPK4TypeSaIS2_EEixEm(ptr noundef nonnull align 8 dereferenceable(24) %23, i64 noundef %24) #3
  %26 = load ptr, ptr %25, align 8
  store ptr %26, ptr %7, align 8
  %27 = load ptr, ptr %7, align 8
  %28 = icmp eq ptr %27, null
  br i1 %28, label %30, label %29

29:                                               ; preds = %22
  call void @_ZN4TypeD1Ev(ptr noundef nonnull align 8 dereferenceable(136) %27) #3
  call void @_ZdlPv(ptr noundef %27) #16
  br label %30

30:                                               ; preds = %29, %22
  %31 = load ptr, ptr %6, align 8
  %32 = load ptr, ptr %4, align 8
  %33 = load i64, ptr %5, align 8
  %34 = call noundef nonnull align 8 dereferenceable(8) ptr @_ZNSt6vectorIPK4TypeSaIS2_EEixEm(ptr noundef nonnull align 8 dereferenceable(24) %32, i64 noundef %33) #3
  store ptr %31, ptr %34, align 8
  br label %35

35:                                               ; preds = %30, %13
  br label %36

36:                                               ; preds = %35
  %37 = load i64, ptr %5, align 8
  %38 = add i64 %37, 1
  store i64 %38, ptr %5, align 8
  br label %8, !llvm.loop !31

39:                                               ; preds = %8
  ret void
}