; Function Attrs: mustprogress nounwind uwtable
define dso_local void @_ZN4Type22delete_useless_structsERSt6vectorIPKS_SaIS2_EES5_(ptr nocapture noundef nonnull readonly align 8 dereferenceable(24) %0, ptr nocapture noundef nonnull readonly align 8 dereferenceable(24) %1) local_unnamed_addr #3 align 2 personality ptr @__gxx_personality_v0 {
  %3 = getelementptr inbounds i8, ptr %0, i64 8
  %4 = load ptr, ptr %3, align 8
  %5 = load ptr, ptr %0, align 8
  %.not = icmp eq ptr %4, %5
  br i1 %.not, label %._crit_edge, label %.lr.ph

.lr.ph:                                           ; preds = %2, %39
  %6 = phi ptr [ %40, %39 ], [ %5, %2 ]
  %7 = phi ptr [ %41, %39 ], [ %4, %2 ]
  %.012 = phi i64 [ %42, %39 ], [ 0, %2 ]
  %8 = getelementptr inbounds ptr, ptr %6, i64 %.012
  %9 = load ptr, ptr %8, align 8
  %10 = load i32, ptr %9, align 8
  %11 = icmp eq i32 %10, 3
  br i1 %11, label %12, label %39

12:                                               ; preds = %.lr.ph
  %13 = load ptr, ptr %1, align 8
  %14 = getelementptr inbounds ptr, ptr %13, i64 %.012
  %15 = load ptr, ptr %14, align 8
  %16 = icmp eq ptr %15, null
  br i1 %16, label %36, label %17

17:                                               ; preds = %12
  %18 = getelementptr inbounds i8, ptr %15, i64 112
  %19 = load ptr, ptr %18, align 8
  %.not.i.i.i.i = icmp eq ptr %19, null
  br i1 %.not.i.i.i.i, label %_ZNSt6vectorIiSaIiEED2Ev.exit.i, label %20

20:                                               ; preds = %17
  tail call void @_ZdlPv(ptr noundef nonnull %19) #21
  br label %_ZNSt6vectorIiSaIiEED2Ev.exit.i

_ZNSt6vectorIiSaIiEED2Ev.exit.i:                  ; preds = %20, %17
  %21 = getelementptr inbounds i8, ptr %15, i64 88
  %22 = load ptr, ptr %21, align 8
  %23 = getelementptr inbounds i8, ptr %15, i64 96
  %24 = load ptr, ptr %23, align 8
  %.not4.i.i.i.i.i = icmp eq ptr %22, %24
  br i1 %.not4.i.i.i.i.i, label %_ZSt8_DestroyIP12CVQualifiersS0_EvT_S2_RSaIT0_E.exit.i.i, label %.lr.ph.i.i.i.i.i

.lr.ph.i.i.i.i.i:                                 ; preds = %_ZNSt6vectorIiSaIiEED2Ev.exit.i, %.lr.ph.i.i.i.i.i
  %.05.i.i.i.i.i = phi ptr [ %27, %.lr.ph.i.i.i.i.i ], [ %22, %_ZNSt6vectorIiSaIiEED2Ev.exit.i ]
  %25 = load ptr, ptr %.05.i.i.i.i.i, align 8
  %26 = load ptr, ptr %25, align 8
  tail call void %26(ptr noundef nonnull align 8 dereferenceable(96) %.05.i.i.i.i.i) #23
  %27 = getelementptr inbounds i8, ptr %.05.i.i.i.i.i, i64 96
  %.not.i.i.i.i.i = icmp eq ptr %27, %24
  br i1 %.not.i.i.i.i.i, label %_ZSt8_DestroyIP12CVQualifiersS0_EvT_S2_RSaIT0_E.exitthread-pre-split.i.i, label %.lr.ph.i.i.i.i.i, !llvm.loop !9

_ZSt8_DestroyIP12CVQualifiersS0_EvT_S2_RSaIT0_E.exitthread-pre-split.i.i: ; preds = %.lr.ph.i.i.i.i.i
  %.pr.i.i = load ptr, ptr %21, align 8
  br label %_ZSt8_DestroyIP12CVQualifiersS0_EvT_S2_RSaIT0_E.exit.i.i

_ZSt8_DestroyIP12CVQualifiersS0_EvT_S2_RSaIT0_E.exit.i.i: ; preds = %_ZSt8_DestroyIP12CVQualifiersS0_EvT_S2_RSaIT0_E.exitthread-pre-split.i.i, %_ZNSt6vectorIiSaIiEED2Ev.exit.i
  %28 = phi ptr [ %.pr.i.i, %_ZSt8_DestroyIP12CVQualifiersS0_EvT_S2_RSaIT0_E.exitthread-pre-split.i.i ], [ %22, %_ZNSt6vectorIiSaIiEED2Ev.exit.i ]
  %.not.i.i.i1.i = icmp eq ptr %28, null
  br i1 %.not.i.i.i1.i, label %_ZNSt6vectorI12CVQualifiersSaIS0_EED2Ev.exit.i, label %29

29:                                               ; preds = %_ZSt8_DestroyIP12CVQualifiersS0_EvT_S2_RSaIT0_E.exit.i.i
  tail call void @_ZdlPv(ptr noundef nonnull %28) #21
  br label %_ZNSt6vectorI12CVQualifiersSaIS0_EED2Ev.exit.i

_ZNSt6vectorI12CVQualifiersSaIS0_EED2Ev.exit.i:   ; preds = %29, %_ZSt8_DestroyIP12CVQualifiersS0_EvT_S2_RSaIT0_E.exit.i.i
  %30 = getelementptr inbounds i8, ptr %15, i64 48
  %31 = load ptr, ptr %30, align 8
  %.not.i.i.i2.i = icmp eq ptr %31, null
  br i1 %.not.i.i.i2.i, label %_ZNSt6vectorIPK4TypeSaIS2_EED2Ev.exit.i, label %32

32:                                               ; preds = %_ZNSt6vectorI12CVQualifiersSaIS0_EED2Ev.exit.i
  tail call void @_ZdlPv(ptr noundef nonnull %31) #21
  br label %_ZNSt6vectorIPK4TypeSaIS2_EED2Ev.exit.i

_ZNSt6vectorIPK4TypeSaIS2_EED2Ev.exit.i:          ; preds = %32, %_ZNSt6vectorI12CVQualifiersSaIS0_EED2Ev.exit.i
  %33 = getelementptr inbounds i8, ptr %15, i64 24
  %34 = load ptr, ptr %33, align 8
  %.not.i.i.i3.i = icmp eq ptr %34, null
  br i1 %.not.i.i.i3.i, label %_ZN4TypeD2Ev.exit, label %35

35:                                               ; preds = %_ZNSt6vectorIPK4TypeSaIS2_EED2Ev.exit.i
  tail call void @_ZdlPv(ptr noundef nonnull %34) #21
  br label %_ZN4TypeD2Ev.exit

_ZN4TypeD2Ev.exit:                                ; preds = %_ZNSt6vectorIPK4TypeSaIS2_EED2Ev.exit.i, %35
  tail call void @_ZdlPv(ptr noundef nonnull %15) #21
  %.pre = load ptr, ptr %1, align 8
  br label %36

36:                                               ; preds = %_ZN4TypeD2Ev.exit, %12
  %37 = phi ptr [ %.pre, %_ZN4TypeD2Ev.exit ], [ %13, %12 ]
  %38 = getelementptr inbounds ptr, ptr %37, i64 %.012
  store ptr %9, ptr %38, align 8
  %.pre13 = load ptr, ptr %3, align 8
  %.pre14 = load ptr, ptr %0, align 8
  br label %39

39:                                               ; preds = %.lr.ph, %36
  %40 = phi ptr [ %6, %.lr.ph ], [ %.pre14, %36 ]
  %41 = phi ptr [ %7, %.lr.ph ], [ %.pre13, %36 ]
  %42 = add nuw i64 %.012, 1
  %43 = ptrtoint ptr %41 to i64
  %44 = ptrtoint ptr %40 to i64
  %45 = sub i64 %43, %44
  %46 = ashr exact i64 %45, 3
  %47 = icmp ult i64 %42, %46
  br i1 %47, label %.lr.ph, label %._crit_edge, !llvm.loop !33

._crit_edge:                                      ; preds = %39, %2
  ret void
}